target datalayout = "e-m:e-p270:32:32-p271:32:32-p272:64:64-i64:64-i128:128-f80:128-n8:16:32:64-S128"
target triple = "x86_64-pc-linux-gnu"

%class.Klass = type <{ %class.Metadata, i32, i32, i32, i32, ptr, ptr, ptr, [8 x ptr], %class.OopHandle, ptr, ptr, ptr, ptr, ptr, i32, %class.AccessFlags, i64, i64, i8, i8, i16, i16, [2 x i8], i32, [4 x i8] }>
%class.Metadata = type { ptr }
%class.OopHandle = type { ptr }
%class.AccessFlags = type { i32 }
%class.PerfData = type { ptr, ptr, i32, i32, i8, i32, ptr, ptr }
%class.AbstractClassHierarchyWalker = type <{ ptr, i32, [4 x i8], [4 x ptr], i32, [4 x i8] }>
%"class.AbstractClassHierarchyWalker::CountingClassHierarchyIterator" = type { %class.ClassHierarchyIterator.base, i64 }
%class.ClassHierarchyIterator.base = type <{ ptr, ptr, i8 }>
%class.ClassHierarchyIterator = type <{ ptr, ptr, i8, [7 x i8] }>

@_ZN28AbstractClassHierarchyWalker39_perf_find_witness_anywhere_steps_countE = hidden global ptr null, align 8
@UsePerfData = external global i8, align 1

; Function Attrs: mustprogress nounwind uwtable
define linkonce_odr hidden noundef zeroext i1 @_ZNK11AccessFlags11is_abstractEv(ptr noundef nonnull align 4 dereferenceable(4) %0) #1 comdat align 2 {
  %2 = alloca ptr, align 8
  store ptr %0, ptr %2, align 8
  %3 = load ptr, ptr %2, align 8
  %4 = getelementptr inbounds %class.AccessFlags, ptr %3, i32 0, i32 0
  %5 = load i32, ptr %4, align 4
  %6 = and i32 %5, 1024
  %7 = icmp ne i32 %6, 0
  ret i1 %7
}

; Function Attrs: mustprogress nounwind uwtable
define linkonce_odr hidden void @_ZN28AbstractClassHierarchyWalker15add_participantEP5Klass(ptr noundef nonnull align 8 dereferenceable(52) %0, ptr noundef %1) #1 comdat align 2 {
  %3 = alloca ptr, align 8
  %4 = alloca ptr, align 8
  %5 = alloca i32, align 4
  store ptr %0, ptr %3, align 8
  store ptr %1, ptr %4, align 8
  %6 = load ptr, ptr %3, align 8
  %7 = getelementptr inbounds %class.AbstractClassHierarchyWalker, ptr %6, i32 0, i32 4
  %8 = load i32, ptr %7, align 8
  %9 = add i32 %8, 1
  store i32 %9, ptr %7, align 8
  store i32 %8, ptr %5, align 4
  %10 = load ptr, ptr %4, align 8
  %11 = getelementptr inbounds %class.AbstractClassHierarchyWalker, ptr %6, i32 0, i32 3
  %12 = load i32, ptr %5, align 4
  %13 = zext i32 %12 to i64
  %14 = getelementptr inbounds [4 x ptr], ptr %11, i64 0, i64 %13
  store ptr %10, ptr %14, align 8
  ret void
}

; Function Attrs: mustprogress nounwind uwtable
define linkonce_odr hidden noundef zeroext i1 @_ZNK5Klass11is_abstractEv(ptr noundef nonnull align 8 dereferenceable(196) %0) #1 comdat align 2 {
  %2 = alloca ptr, align 8
  store ptr %0, ptr %2, align 8
  %3 = load ptr, ptr %2, align 8
  %4 = getelementptr inbounds %class.Klass, ptr %3, i32 0, i32 16
  %5 = call noundef zeroext i1 @_ZNK11AccessFlags11is_abstractEv(ptr noundef nonnull align 4 dereferenceable(4) %4)
  ret i1 %5
}

; Function Attrs: mustprogress nounwind uwtable
define linkonce_odr hidden void @_ZN15PerfLongVariant3incEl(ptr noundef nonnull align 8 dereferenceable(56) %0, i64 noundef %1) #1 comdat align 2 {
  %3 = alloca ptr, align 8
  %4 = alloca i64, align 8
  store ptr %0, ptr %3, align 8
  store i64 %1, ptr %4, align 8
  %5 = load ptr, ptr %3, align 8
  %6 = load i64, ptr %4, align 8
  %7 = getelementptr inbounds %class.PerfData, ptr %5, i32 0, i32 7
  %8 = load ptr, ptr %7, align 8
  %9 = load i64, ptr %8, align 8
  %10 = add nsw i64 %9, %6
  store i64 %10, ptr %8, align 8
  ret void
}

; Function Attrs: mustprogress nounwind uwtable
define linkonce_odr hidden noundef zeroext i1 @_ZN28AbstractClassHierarchyWalker14record_witnessEP5Klass(ptr noundef nonnull align 8 dereferenceable(52) %0, ptr noundef %1) #1 comdat align 2 {
  %3 = alloca i1, align 1
  %4 = alloca ptr, align 8
  %5 = alloca ptr, align 8
  store ptr %0, ptr %4, align 8
  store ptr %1, ptr %5, align 8
  %6 = load ptr, ptr %4, align 8
  %7 = getelementptr inbounds %class.AbstractClassHierarchyWalker, ptr %6, i32 0, i32 1
  %8 = load i32, ptr %7, align 8
  %9 = icmp ugt i32 %8, 0
  br i1 %9, label %10, label %15

10:                                               ; preds = %2
  %11 = getelementptr inbounds %class.AbstractClassHierarchyWalker, ptr %6, i32 0, i32 1
  %12 = load i32, ptr %11, align 8
  %13 = add i32 %12, -1
  store i32 %13, ptr %11, align 8
  %14 = load ptr, ptr %5, align 8
  call void @_ZN28AbstractClassHierarchyWalker15add_participantEP5Klass(ptr noundef nonnull align 8 dereferenceable(52) %6, ptr noundef %14)
  store i1 false, ptr %3, align 1
  br label %16

15:                                               ; preds = %2
  store i1 true, ptr %3, align 1
  br label %16

16:                                               ; preds = %15, %10
  %17 = load i1, ptr %3, align 1
  ret i1 %17
}

; Function Attrs: mustprogress nounwind uwtable
define hidden noundef zeroext i1 @_ZN12Dependencies17is_concrete_klassEP5Klass(ptr noundef %0) #1 align 2 {
  %2 = alloca i1, align 1
  %3 = alloca ptr, align 8
  store ptr %0, ptr %3, align 8
  %4 = load ptr, ptr %3, align 8
  %5 = call noundef zeroext i1 @_ZNK5Klass11is_abstractEv(ptr noundef nonnull align 8 dereferenceable(196) %4)
  br i1 %5, label %6, label %7

6:                                                ; preds = %1
  store i1 false, ptr %2, align 1
  br label %8

7:                                                ; preds = %1
  store i1 true, ptr %2, align 1
  br label %8

8:                                                ; preds = %7, %6
  %9 = load i1, ptr %2, align 1
  ret i1 %9
}

; Function Attrs: mustprogress nounwind uwtable
define linkonce_odr hidden void @_ZN22ClassHierarchyIteratorC2EP13InstanceKlass(ptr noundef nonnull align 8 dereferenceable(17) %0, ptr noundef %1) unnamed_addr #1 comdat align 2 {
  %3 = alloca ptr, align 8
  %4 = alloca ptr, align 8
  store ptr %0, ptr %3, align 8
  store ptr %1, ptr %4, align 8
  %5 = load ptr, ptr %3, align 8
  %6 = getelementptr inbounds %class.ClassHierarchyIterator, ptr %5, i32 0, i32 0
  %7 = load ptr, ptr %4, align 8
  store ptr %7, ptr %6, align 8
  %8 = getelementptr inbounds %class.ClassHierarchyIterator, ptr %5, i32 0, i32 1
  %9 = load ptr, ptr %4, align 8
  store ptr %9, ptr %8, align 8
  %10 = getelementptr inbounds %class.ClassHierarchyIterator, ptr %5, i32 0, i32 2
  store i8 1, ptr %10, align 8
  ret void
}

; Function Attrs: mustprogress nounwind uwtable
define linkonce_odr hidden void @_ZN28AbstractClassHierarchyWalker30CountingClassHierarchyIteratorD2Ev(ptr noundef nonnull align 8 dereferenceable(32) %0) unnamed_addr #1 comdat align 2 {
  %2 = alloca ptr, align 8
  store ptr %0, ptr %2, align 8
  %3 = load ptr, ptr %2, align 8
  %4 = load i8, ptr @UsePerfData, align 1
  %5 = trunc i8 %4 to i1
  br i1 %5, label %6, label %10

6:                                                ; preds = %1
  %7 = load ptr, ptr @_ZN28AbstractClassHierarchyWalker39_perf_find_witness_anywhere_steps_countE, align 8
  %8 = getelementptr inbounds %"class.AbstractClassHierarchyWalker::CountingClassHierarchyIterator", ptr %3, i32 0, i32 1
  %9 = load i64, ptr %8, align 8
  call void @_ZN15PerfLongVariant3incEl(ptr noundef nonnull align 8 dereferenceable(56) %7, i64 noundef %9)
  br label %10

10:                                               ; preds = %6, %1
  ret void
}

; Function Attrs: mustprogress nounwind uwtable
define linkonce_odr hidden void @_ZN28AbstractClassHierarchyWalker30CountingClassHierarchyIterator4nextEv(ptr noundef nonnull align 8 dereferenceable(32) %0) #1 comdat align 2 {
  %2 = alloca ptr, align 8
  store ptr %0, ptr %2, align 8
  %3 = load ptr, ptr %2, align 8
  %4 = getelementptr inbounds %"class.AbstractClassHierarchyWalker::CountingClassHierarchyIterator", ptr %3, i32 0, i32 1
  %5 = load i64, ptr %4, align 8
  %6 = add nsw i64 %5, 1
  store i64 %6, ptr %4, align 8
  call void @_ZN22ClassHierarchyIterator4nextEv(ptr noundef nonnull align 8 dereferenceable(17) %3)
  ret void
}

; Function Attrs: mustprogress nounwind uwtable
define hidden noundef zeroext i1 @_ZN21ConcreteSubtypeFinder10is_witnessEP5Klass(ptr noundef nonnull align 8 dereferenceable(52) %0, ptr noundef %1) #1 align 2 {
  %3 = alloca i1, align 1
  %4 = alloca ptr, align 8
  %5 = alloca ptr, align 8
  store ptr %0, ptr %4, align 8
  store ptr %1, ptr %5, align 8
  %6 = load ptr, ptr %4, align 8
  %7 = load ptr, ptr %5, align 8
  %8 = call noundef zeroext i1 @_ZN12Dependencies17is_concrete_klassEP5Klass(ptr noundef %7)
  br i1 %8, label %9, label %12

9:                                                ; preds = %2
  %10 = load ptr, ptr %5, align 8
  %11 = call noundef zeroext i1 @_ZN28AbstractClassHierarchyWalker14record_witnessEP5Klass(ptr noundef nonnull align 8 dereferenceable(52) %6, ptr noundef %10)
  store i1 %11, ptr %3, align 1
  br label %13

12:                                               ; preds = %2
  store i1 false, ptr %3, align 1
  br label %13

13:                                               ; preds = %12, %9
  %14 = load i1, ptr %3, align 1
  ret i1 %14
}

; Function Attrs: mustprogress nounwind uwtable
define linkonce_odr hidden void @_ZN22ClassHierarchyIterator15skip_subclassesEv(ptr noundef nonnull align 8 dereferenceable(17) %0) #1 comdat align 2 {
  %2 = alloca ptr, align 8
  store ptr %0, ptr %2, align 8
  %3 = load ptr, ptr %2, align 8
  %4 = getelementptr inbounds %class.ClassHierarchyIterator, ptr %3, i32 0, i32 2
  store i8 0, ptr %4, align 8
  ret void
}

; Function Attrs: mustprogress nounwind uwtable
define linkonce_odr hidden noundef zeroext i1 @_ZN28AbstractClassHierarchyWalker14is_participantEP5Klass(ptr noundef nonnull align 8 dereferenceable(52) %0, ptr noundef %1) #1 comdat align 2 {
  %3 = alloca i1, align 1
  %4 = alloca ptr, align 8
  %5 = alloca ptr, align 8
  %6 = alloca i32, align 4
  store ptr %0, ptr %4, align 8
  store ptr %1, ptr %5, align 8
  %7 = load ptr, ptr %4, align 8
  store i32 0, ptr %6, align 4
  br label %8

8:                                                ; preds = %23, %2
  %9 = load i32, ptr %6, align 4
  %10 = getelementptr inbounds %class.AbstractClassHierarchyWalker, ptr %7, i32 0, i32 4
  %11 = load i32, ptr %10, align 8
  %12 = icmp ult i32 %9, %11
  br i1 %12, label %13, label %26

13:                                               ; preds = %8
  %14 = getelementptr inbounds %class.AbstractClassHierarchyWalker, ptr %7, i32 0, i32 3
  %15 = load i32, ptr %6, align 4
  %16 = zext i32 %15 to i64
  %17 = getelementptr inbounds [4 x ptr], ptr %14, i64 0, i64 %16
  %18 = load ptr, ptr %17, align 8
  %19 = load ptr, ptr %5, align 8
  %20 = icmp eq ptr %18, %19
  br i1 %20, label %21, label %22

21:                                               ; preds = %13
  store i1 true, ptr %3, align 1
  br label %27

22:                                               ; preds = %13
  br label %23

23:                                               ; preds = %22
  %24 = load i32, ptr %6, align 4
  %25 = add i32 %24, 1
  store i32 %25, ptr %6, align 4
  br label %8, !llvm.loop !40

26:                                               ; preds = %8
  store i1 false, ptr %3, align 1
  br label %27

27:                                               ; preds = %26, %21
  %28 = load i1, ptr %3, align 1
  ret i1 %28
}

; Function Attrs: mustprogress nounwind uwtable
define linkonce_odr hidden noundef ptr @_ZN22ClassHierarchyIterator5klassEv(ptr noundef nonnull align 8 dereferenceable(17) %0) #1 comdat align 2 {
  %2 = alloca ptr, align 8
  store ptr %0, ptr %2, align 8
  %3 = load ptr, ptr %2, align 8
  %4 = getelementptr inbounds %class.ClassHierarchyIterator, ptr %3, i32 0, i32 1
  %5 = load ptr, ptr %4, align 8
  ret ptr %5
}

; Function Attrs: mustprogress nounwind uwtable
define linkonce_odr hidden noundef zeroext i1 @_ZN22ClassHierarchyIterator4doneEv(ptr noundef nonnull align 8 dereferenceable(17) %0) #1 comdat align 2 {
  %2 = alloca ptr, align 8
  store ptr %0, ptr %2, align 8
  %3 = load ptr, ptr %2, align 8
  %4 = getelementptr inbounds %class.ClassHierarchyIterator, ptr %3, i32 0, i32 1
  %5 = load ptr, ptr %4, align 8
  %6 = icmp eq ptr %5, null
  ret i1 %6
}

; Function Attrs: mustprogress nounwind uwtable
define linkonce_odr hidden void @_ZN28AbstractClassHierarchyWalker30CountingClassHierarchyIteratorC2EP13InstanceKlass(ptr noundef nonnull align 8 dereferenceable(32) %0, ptr noundef %1) unnamed_addr #1 comdat align 2 {
  %3 = alloca ptr, align 8
  %4 = alloca ptr, align 8
  store ptr %0, ptr %3, align 8
  store ptr %1, ptr %4, align 8
  %5 = load ptr, ptr %3, align 8
  %6 = load ptr, ptr %4, align 8
  call void @_ZN22ClassHierarchyIteratorC2EP13InstanceKlass(ptr noundef nonnull align 8 dereferenceable(17) %5, ptr noundef %6)
  %7 = getelementptr inbounds %"class.AbstractClassHierarchyWalker::CountingClassHierarchyIterator", ptr %5, i32 0, i32 1
  store i64 0, ptr %7, align 8
  ret void
}

; Function Attrs: mustprogress nounwind uwtable
define hidden noundef ptr @_ZN21ConcreteSubtypeFinder21find_witness_anywhereEP13InstanceKlass(ptr noundef nonnull align 8 dereferenceable(52) %0, ptr noundef %1) unnamed_addr #1 align 2 {
  %3 = alloca ptr, align 8
  %4 = alloca ptr, align 8
  %5 = alloca ptr, align 8
  %6 = alloca %"class.AbstractClassHierarchyWalker::CountingClassHierarchyIterator", align 8
  %7 = alloca i32, align 4
  %8 = alloca ptr, align 8
  store ptr %0, ptr %4, align 8
  store ptr %1, ptr %5, align 8
  %9 = load ptr, ptr %4, align 8
  %10 = load ptr, ptr %5, align 8
  call void @_ZN28AbstractClassHierarchyWalker30CountingClassHierarchyIteratorC2EP13InstanceKlass(ptr noundef nonnull align 8 dereferenceable(32) %6, ptr noundef %10)
  br label %11

11:                                               ; preds = %27, %2
  %12 = call noundef zeroext i1 @_ZN22ClassHierarchyIterator4doneEv(ptr noundef nonnull align 8 dereferenceable(17) %6)
  %13 = xor i1 %12, true
  br i1 %13, label %15, label %14

14:                                               ; preds = %11
  store i32 2, ptr %7, align 4
  br label %28

15:                                               ; preds = %11
  %16 = call noundef ptr @_ZN22ClassHierarchyIterator5klassEv(ptr noundef nonnull align 8 dereferenceable(17) %6)
  store ptr %16, ptr %8, align 8
  %17 = load ptr, ptr %8, align 8
  %18 = call noundef zeroext i1 @_ZN28AbstractClassHierarchyWalker14is_participantEP5Klass(ptr noundef nonnull align 8 dereferenceable(52) %9, ptr noundef %17)
  br i1 %18, label %19, label %20

19:                                               ; preds = %15
  call void @_ZN22ClassHierarchyIterator15skip_subclassesEv(ptr noundef nonnull align 8 dereferenceable(17) %6)
  br label %26

20:                                               ; preds = %15
  %21 = load ptr, ptr %8, align 8
  %22 = call noundef zeroext i1 @_ZN21ConcreteSubtypeFinder10is_witnessEP5Klass(ptr noundef nonnull align 8 dereferenceable(52) %9, ptr noundef %21)
  br i1 %22, label %23, label %25

23:                                               ; preds = %20
  %24 = load ptr, ptr %8, align 8
  store ptr %24, ptr %3, align 8
  store i32 1, ptr %7, align 4
  br label %28

25:                                               ; preds = %20
  br label %26

26:                                               ; preds = %25, %19
  br label %27

27:                                               ; preds = %26
  call void @_ZN28AbstractClassHierarchyWalker30CountingClassHierarchyIterator4nextEv(ptr noundef nonnull align 8 dereferenceable(32) %6)
  br label %11, !llvm.loop !39

28:                                               ; preds = %23, %14
  call void @_ZN28AbstractClassHierarchyWalker30CountingClassHierarchyIteratorD2Ev(ptr noundef nonnull align 8 dereferenceable(32) %6) #8
  %29 = load i32, ptr %7, align 4
  switch i32 %29, label %33 [
    i32 2, label %30
    i32 1, label %31
  ]

30:                                               ; preds = %28
  store ptr null, ptr %3, align 8
  br label %31

31:                                               ; preds = %30, %28
  %32 = load ptr, ptr %3, align 8
  ret ptr %32

33:                                               ; preds = %28
  unreachable
}