; Function Attrs: mustprogress nounwind uwtable
define hidden noundef ptr @_ZN21ConcreteSubtypeFinder21find_witness_anywhereEP13InstanceKlass(ptr nocapture noundef nonnull align 8 dereferenceable(52) %0, ptr noundef %1) unnamed_addr #0 align 2 {
  %3 = alloca %"class.AbstractClassHierarchyWalker::CountingClassHierarchyIterator", align 8
  store ptr %1, ptr %3, align 8
  %4 = getelementptr inbounds i8, ptr %3, i64 8
  store ptr %1, ptr %4, align 8
  %5 = getelementptr inbounds i8, ptr %3, i64 16
  store i8 1, ptr %5, align 8
  %6 = getelementptr inbounds i8, ptr %3, i64 24
  store i64 0, ptr %6, align 8
  %7 = getelementptr inbounds i8, ptr %0, i64 8
  %8 = icmp eq ptr %1, null
  br i1 %8, label %_ZN21ConcreteSubtypeFinder10is_witnessEP5Klass.exit, label %.lr.ph11

.lr.ph11:                                         ; preds = %2
  %9 = getelementptr inbounds i8, ptr %0, i64 16
  %10 = getelementptr inbounds i8, ptr %0, i64 48
  br label %11

11:                                               ; preds = %.lr.ph11, %_ZN21ConcreteSubtypeFinder10is_witnessEP5Klass.exit.thread
  %12 = phi ptr [ %1, %.lr.ph11 ], [ %.pr, %_ZN21ConcreteSubtypeFinder10is_witnessEP5Klass.exit.thread ]
  %13 = load i32, ptr %10, align 8
  %.not.i = icmp eq i32 %13, 0
  br i1 %.not.i, label %_ZN28AbstractClassHierarchyWalker14is_participantEP5Klass.exit.thread, label %.lr.ph.preheader.i

.lr.ph.preheader.i:                               ; preds = %11
  %14 = zext i32 %13 to i64
  %15 = load ptr, ptr %9, align 8
  %16 = icmp eq ptr %15, %12
  br i1 %16, label %.critedge, label %.lr.ph

.lr.ph:                                           ; preds = %.lr.ph.preheader.i, %.lr.ph.i
  %indvars.iv.i9 = phi i64 [ %indvars.iv.next.i, %.lr.ph.i ], [ 0, %.lr.ph.preheader.i ]
  %indvars.iv.next.i = add nuw nsw i64 %indvars.iv.i9, 1
  %exitcond.not.i = icmp eq i64 %indvars.iv.next.i, %14
  br i1 %exitcond.not.i, label %_ZN28AbstractClassHierarchyWalker14is_participantEP5Klass.exit, label %.lr.ph.i, !llvm.loop !48

.lr.ph.i:                                         ; preds = %.lr.ph
  %17 = getelementptr inbounds [4 x ptr], ptr %9, i64 0, i64 %indvars.iv.next.i
  %18 = load ptr, ptr %17, align 8
  %19 = icmp eq ptr %18, %12
  br i1 %19, label %_ZN28AbstractClassHierarchyWalker14is_participantEP5Klass.exit, label %.lr.ph, !llvm.loop !48

_ZN28AbstractClassHierarchyWalker14is_participantEP5Klass.exit: ; preds = %.lr.ph.i, %.lr.ph
  %20 = icmp ult i64 %indvars.iv.next.i, %14
  br i1 %20, label %.critedge, label %_ZN28AbstractClassHierarchyWalker14is_participantEP5Klass.exit.thread

.critedge:                                        ; preds = %.lr.ph.preheader.i, %_ZN28AbstractClassHierarchyWalker14is_participantEP5Klass.exit
  store i8 0, ptr %5, align 8
  br label %_ZN21ConcreteSubtypeFinder10is_witnessEP5Klass.exit.thread

_ZN28AbstractClassHierarchyWalker14is_participantEP5Klass.exit.thread: ; preds = %11, %_ZN28AbstractClassHierarchyWalker14is_participantEP5Klass.exit
  %21 = getelementptr inbounds i8, ptr %12, i64 164
  %22 = load i32, ptr %21, align 4
  %23 = and i32 %22, 1024
  %.not.i.i = icmp eq i32 %23, 0
  br i1 %.not.i.i, label %24, label %_ZN21ConcreteSubtypeFinder10is_witnessEP5Klass.exit.thread

24:                                               ; preds = %_ZN28AbstractClassHierarchyWalker14is_participantEP5Klass.exit.thread
  %25 = load i32, ptr %7, align 8
  %.not.i4.i = icmp eq i32 %25, 0
  br i1 %.not.i4.i, label %_ZN21ConcreteSubtypeFinder10is_witnessEP5Klass.exit, label %26

26:                                               ; preds = %24
  %27 = add i32 %25, -1
  store i32 %27, ptr %7, align 8
  %28 = add i32 %13, 1
  store i32 %28, ptr %10, align 8
  %29 = zext i32 %13 to i64
  %30 = getelementptr inbounds [4 x ptr], ptr %9, i64 0, i64 %29
  store ptr %12, ptr %30, align 8
  br label %_ZN21ConcreteSubtypeFinder10is_witnessEP5Klass.exit.thread

_ZN21ConcreteSubtypeFinder10is_witnessEP5Klass.exit.thread: ; preds = %26, %_ZN28AbstractClassHierarchyWalker14is_participantEP5Klass.exit.thread, %.critedge
  %31 = load i64, ptr %6, align 8
  %32 = add nsw i64 %31, 1
  store i64 %32, ptr %6, align 8
  call void @_ZN22ClassHierarchyIterator4nextEv(ptr noundef nonnull align 8 dereferenceable(17) %3) #18
  %.pr = load ptr, ptr %4, align 8
  %33 = icmp eq ptr %.pr, null
  br i1 %33, label %_ZN21ConcreteSubtypeFinder10is_witnessEP5Klass.exit, label %11, !llvm.loop !49

_ZN21ConcreteSubtypeFinder10is_witnessEP5Klass.exit: ; preds = %_ZN21ConcreteSubtypeFinder10is_witnessEP5Klass.exit.thread, %24, %2
  %.lcssa = phi ptr [ null, %2 ], [ %12, %24 ], [ null, %_ZN21ConcreteSubtypeFinder10is_witnessEP5Klass.exit.thread ]
  %34 = load i8, ptr @UsePerfData, align 1
  %35 = trunc i8 %34 to i1
  br i1 %35, label %36, label %_ZN28AbstractClassHierarchyWalker30CountingClassHierarchyIteratorD2Ev.exit

36:                                               ; preds = %_ZN21ConcreteSubtypeFinder10is_witnessEP5Klass.exit
  %37 = load ptr, ptr @_ZN28AbstractClassHierarchyWalker39_perf_find_witness_anywhere_steps_countE, align 8
  %38 = load i64, ptr %6, align 8
  %39 = getelementptr inbounds i8, ptr %37, i64 40
  %40 = load ptr, ptr %39, align 8
  %41 = load i64, ptr %40, align 8
  %42 = add nsw i64 %41, %38
  store i64 %42, ptr %40, align 8
  br label %_ZN28AbstractClassHierarchyWalker30CountingClassHierarchyIteratorD2Ev.exit

_ZN28AbstractClassHierarchyWalker30CountingClassHierarchyIteratorD2Ev.exit: ; preds = %_ZN21ConcreteSubtypeFinder10is_witnessEP5Klass.exit, %36
  ret ptr %.lcssa
}